target datalayout = "e-m:e-p270:32:32-p271:32:32-p272:64:64-i64:64-i128:128-f80:128-n8:16:32:64-S128"
target triple = "x86_64-unknown-linux-gnu"

%"class.QuantLib::BivariateCumulativeNormalDistributionDr78" = type { double, double }

; Function Attrs: mustprogress uwtable
define noundef double @_ZNK8QuantLib29AnalyticTwoAssetBarrierEngine1MEddd(ptr noundef nonnull align 8 dereferenceable(296) %this, double noundef %m_a, double noundef %m_b, double noundef %rho) #2 align 2 {
entry:
  %this.addr = alloca ptr, align 8
  %m_a.addr = alloca double, align 8
  %m_b.addr = alloca double, align 8
  %rho.addr = alloca double, align 8
  %f = alloca %"class.QuantLib::BivariateCumulativeNormalDistributionDr78", align 8
  store ptr %this, ptr %this.addr, align 8, !tbaa !3
  store double %m_a, ptr %m_a.addr, align 8, !tbaa !18
  store double %m_b, ptr %m_b.addr, align 8, !tbaa !18
  store double %rho, ptr %rho.addr, align 8, !tbaa !18
  call void @llvm.lifetime.start.p0(i64 16, ptr %f) #13
  %0 = load double, ptr %rho.addr, align 8, !tbaa !18
  call void @_ZN8QuantLib41BivariateCumulativeNormalDistributionDr78C1Ed(ptr noundef nonnull align 8 dereferenceable(16) %f, double noundef %0)
  %1 = load double, ptr %m_a.addr, align 8, !tbaa !18
  %2 = load double, ptr %m_b.addr, align 8, !tbaa !18
  %call = call noundef double @_ZNK8QuantLib41BivariateCumulativeNormalDistributionDr78clEdd(ptr noundef nonnull align 8 dereferenceable(16) %f, double noundef %1, double noundef %2)
  call void @llvm.lifetime.end.p0(i64 16, ptr %f) #13
  ret double %call
}