; Function Attrs: mustprogress uwtable
define noundef double @_ZNK8QuantLib29AnalyticTwoAssetBarrierEngine1MEddd(ptr nocapture noundef nonnull readnone align 8 dereferenceable(296) %this, double noundef %m_a, double noundef %m_b, double noundef %rho) local_unnamed_addr #8 align 2 {
entry:
  %f = alloca %"class.QuantLib::BivariateCumulativeNormalDistributionDr78", align 8
  call void @llvm.lifetime.start.p0(i64 16, ptr nonnull %f) #28
  call void @_ZN8QuantLib41BivariateCumulativeNormalDistributionDr78C1Ed(ptr noundef nonnull align 8 dereferenceable(16) %f, double noundef %rho)
  %call = call noundef double @_ZNK8QuantLib41BivariateCumulativeNormalDistributionDr78clEdd(ptr noundef nonnull align 8 dereferenceable(16) %f, double noundef %m_a, double noundef %m_b)
  call void @llvm.lifetime.end.p0(i64 16, ptr nonnull %f) #28
  ret double %call
}